target datalayout = "e-m:e-p270:32:32-p271:32:32-p272:64:64-i64:64-i128:128-f80:128-n8:16:32:64-S128"
target triple = "x86_64-unknown-linux-gnu"

%"class.std::__cxx11::basic_string" = type { %"struct.std::__cxx11::basic_string<char>::_Alloc_hider", i64, %union.anon }
%"struct.std::__cxx11::basic_string<char>::_Alloc_hider" = type { ptr }
%union.anon = type { i64, [8 x i8] }
%"class.Imf_3_2::RgbaInputFile" = type { ptr, ptr, ptr, ptr, %"class.std::__cxx11::basic_string" }

; Function Attrs: mustprogress uwtable
define noundef zeroext i1 @_ZNK7Imf_3_213RgbaInputFile10isCompleteEv(ptr noundef nonnull align 8 dereferenceable(64) %this) #4 align 2 {
entry:
  %retval = alloca i1, align 1
  %this.addr = alloca ptr, align 8
  %i = alloca i32, align 4
  store ptr %this, ptr %this.addr, align 8
  %this1 = load ptr, ptr %this.addr, align 8
  store i32 0, ptr %i, align 4
  br label %for.cond

for.cond:                                         ; preds = %for.inc, %entry
  %0 = load i32, ptr %i, align 4
  %_multiPartFile = getelementptr inbounds %"class.Imf_3_2::RgbaInputFile", ptr %this1, i32 0, i32 1
  %1 = load ptr, ptr %_multiPartFile, align 8
  %call = call noundef i32 @_ZNK7Imf_3_218MultiPartInputFile5partsEv(ptr noundef nonnull align 8 dereferenceable(16) %1)
  %cmp = icmp slt i32 %0, %call
  br i1 %cmp, label %for.body, label %for.end

for.body:                                         ; preds = %for.cond
  %_multiPartFile2 = getelementptr inbounds %"class.Imf_3_2::RgbaInputFile", ptr %this1, i32 0, i32 1
  %2 = load ptr, ptr %_multiPartFile2, align 8
  %3 = load i32, ptr %i, align 4
  %call3 = call noundef zeroext i1 @_ZNK7Imf_3_218MultiPartInputFile12partCompleteEi(ptr noundef nonnull align 8 dereferenceable(16) %2, i32 noundef %3)
  br i1 %call3, label %if.end, label %if.then

if.then:                                          ; preds = %for.body
  store i1 false, ptr %retval, align 1
  br label %return

if.end:                                           ; preds = %for.body
  br label %for.inc

for.inc:                                          ; preds = %if.end
  %4 = load i32, ptr %i, align 4
  %inc = add nsw i32 %4, 1
  store i32 %inc, ptr %i, align 4
  br label %for.cond, !llvm.loop !33

for.end:                                          ; preds = %for.cond
  store i1 true, ptr %retval, align 1
  br label %return

return:                                           ; preds = %for.end, %if.then
  %5 = load i1, ptr %retval, align 1
  ret i1 %5
}