; Function Attrs: mustprogress uwtable
define noundef zeroext i1 @_ZNK7Imf_3_213RgbaInputFile10isCompleteEv(ptr nocapture noundef nonnull readonly align 8 dereferenceable(64) %this) local_unnamed_addr #3 align 2 {
entry:
  %_multiPartFile = getelementptr inbounds i8, ptr %this, i64 8
  %0 = load ptr, ptr %_multiPartFile, align 8
  %call4 = tail call noundef i32 @_ZNK7Imf_3_218MultiPartInputFile5partsEv(ptr noundef nonnull align 8 dereferenceable(16) %0)
  %cmp5 = icmp slt i32 %call4, 1
  br i1 %cmp5, label %return, label %for.body

for.cond:                                         ; preds = %for.body
  %inc = add nuw nsw i32 %i.06, 1
  %1 = load ptr, ptr %_multiPartFile, align 8
  %call = tail call noundef i32 @_ZNK7Imf_3_218MultiPartInputFile5partsEv(ptr noundef nonnull align 8 dereferenceable(16) %1)
  %cmp.not = icmp slt i32 %inc, %call
  br i1 %cmp.not, label %for.body, label %return, !llvm.loop !31

for.body:                                         ; preds = %entry, %for.cond
  %i.06 = phi i32 [ %inc, %for.cond ], [ 0, %entry ]
  %2 = load ptr, ptr %_multiPartFile, align 8
  %call3 = tail call noundef zeroext i1 @_ZNK7Imf_3_218MultiPartInputFile12partCompleteEi(ptr noundef nonnull align 8 dereferenceable(16) %2, i32 noundef %i.06)
  br i1 %call3, label %for.cond, label %return

return:                                           ; preds = %for.body, %for.cond, %entry
  %cmp.lcssa = phi i1 [ true, %entry ], [ %call3, %for.cond ], [ %call3, %for.body ]
  ret i1 %cmp.lcssa
}